(dp0
S'Stannis'
p1
(lp2
(S'Robert'
p3
I13
tp4
a(S'Renly'
p5
I12
tp6
a(S'Davos'
p7
I5
tp8
asS'Balon'
p9
(lp10
(S'Theon'
p11
I15
tp12
a(S'Victarion'
p13
I11
tp14
asS'Robert'
p15
(lp16
(S'Cersei'
p17
I12
tp18
a(S'Renly'
p19
I7
tp20
a(S'Ned'
p21
I7
tp22
asS'Robb'
p23
(lp24
(S'Ned'
p25
I12
tp26
a(S'Catelyn'
p27
I10
tp28
a(S'Bran'
p29
I4
tp30
asS'Renly'
p31
(lp32
(S'Stannis'
p33
I15
tp34
a(S'Robert'
p35
I14
tp36
asS'Bran'
p37
(lp38
(S'Hodor'
p39
I9
tp40
a(S'Robb'
p41
I8
tp42
a(S'Sansa'
p43
I7
tp44
a(S'Jon'
p45
I6
tp46
asS'Theon'
p47
(lp48
(S'Balon'
p49
I13
tp50
a(S'Robb'
p51
I9
tp52
asS'Tyrion'
p53
(lp54
(S'Jaime'
p55
I12
tp56
a(S'Cersei'
p57
I7
tp58
a(S'Tywin'
p59
I5
tp60
a(S'Varys'
p61
I4
tp62
asS'Joffrey'
p63
(lp64
(S'Cersei'
p65
I14
tp66
a(S'Sansa'
p67
I7
tp68
a(S'Myrcella'
p69
I4
tp70
asS'Margaery'
p71
(lp72
(S'Loras'
p73
I13
tp74
a(S'Tommen'
p75
I12
tp76
a(S'Joffrey'
p77
I4
tp78
asS'Ned'
p79
(lp80
(S'Catelyn'
p81
I15
tp82
a(S'Sansa'
p83
I10
tp84
asS'Jon'
p85
(lp86
(S'Ned'
p87
I11
tp88
a(S'Sansa'
p89
I10
tp90
a(S'Robb'
p91
I7
tp92
asS'Petyr'
p93
(lp94
(S'Sansa'
p95
I14
tp96
a(S'Lysa'
p97
I12
tp98
asS'Edmure'
p99
(lp100
(S'Catelyn'
p101
I13
tp102
a(S'Lysa'
p103
I7
tp104
a(S'Hoster'
p105
I5
tp106
a(S'Robb'
p107
I4
tp108
asS'Barristan'
p109
(lp110
(S'Robert'
p111
I13
tp112
a(S'Joffrey'
p113
I9
tp114
a(S'Jaime'
p115
I4
tp116
asS'Pycelle'
p117
(lp118
(S'Cersei'
p119
I12
tp120
a(S'Joffrey'
p121
I5
tp122
a(S'Varys'
p123
I5
tp124
a(S'Robert'
p125
I4
tp126
asS'Lysa'
p127
(lp128
(S'Catelyn'
p129
I14
tp130
a(S'Petyr'
p131
I11
tp132
asS'Varys'
p133
(lp134
(S'Tyrion'
p135
I13
tp136
a(S'Petyr'
p137
I8
tp138
a(S'Cersei'
p139
I5
tp140
asS'Jaime'
p141
(lp142
(S'Cersei'
p143
I15
tp144
a(S'Tyrion'
p145
I9
tp146
a(S'Tywin'
p147
I4
tp148
asS'Arya'
p149
(lp150
(S'Sansa'
p151
I12
tp152
a(S'Catelyn'
p153
I8
tp154
a(S'Hound'
p155
I5
tp156
asS'Myrcella'
p157
(lp158
(S'Cersei'
p159
I11
tp160
a(S'Tommen'
p161
I11
tp162
a(S'Joffrey'
p163
I6
tp164
asS'Hoster'
p165
(lp166
(S'Catelyn'
p167
I14
tp168
a(S'Edmure'
p169
I10
tp170
asS'Sansa'
p171
(lp172
(S'Ned'
p173
I12
tp174
a(S'Catelyn'
p175
I11
tp176
asS'Tywin'
p177
(lp178
(S'Cersei'
p179
I13
tp180
a(S'Jaime'
p181
I10
tp182
a(S'Tyrion'
p183
I7
tp184
asS'Tommen'
p185
(lp186
(S'Cersei'
p187
I15
tp188
a(S'Margaery'
p189
I4
tp190
a(S'Joffrey'
p191
I4
tp192
a(S'Jaime'
p193
I4
tp194
asS'Cersei'
p195
(lp196
(S'Jaime'
p197
I15
tp198
a(S'Tommen'
p199
I8
tp200
a(S'Tyrion'
p201
I4
tp202
asS'Roose'
p203
(lp204
(S'Robb'
p205
I13
tp206
a(S'Tywin'
p207
I6
tp208
a(S'Hoster'
p209
I5
tp210
a(S'Arya'
p211
I4
tp212
asS'Catelyn'
p213
(lp214
(S'Ned'
p215
I14
tp216
a(S'Robb'
p217
I9
tp218
a(S'Lysa'
p219
I5
tp220
asS'Loras'
p221
(lp222
(S'Margaery'
p223
I15
tp224
a(S'Sansa'
p225
I6
tp226
a(S'Cersei'
p227
I4
tp228
asS'Hound'
p229
(lp230
(S'Arya'
p231
I13
tp232
a(S'Joffrey'
p233
I11
tp234
as.