(dp0
S'Percy'
p1
(lp2
(S'Fred'
p3
I8
tp4
a(S'Ron'
p5
I8
tp6
a(S'George'
p7
I5
tp8
a(S'Bill'
p9
I5
tp10
a(S'Harry'
p11
I4
tp12
asS'Bill'
p13
(lp14
(S'Fleur'
p15
I12
tp16
a(S'George'
p17
I5
tp18
a(S'Ginny'
p19
I4
tp20
a(S'Harry'
p21
I4
tp22
asS'Sirius'
p23
(lp24
(S'Harry'
p25
I14
tp26
a(S'James'
p27
I12
tp28
asS'Ron'
p29
(lp30
(S'Harry'
p31
I14
tp32
a(S'Hermione'
p33
I14
tp34
asS'James'
p35
(lp36
(S'Lily'
p37
I12
tp38
a(S'Harry'
p39
I10
tp40
a(S'Sirius'
p41
I5
tp42
asS'Ginny'
p43
(lp44
(S'Harry'
p45
I14
tp46
a(S'Ron'
p47
I11
tp48
asS'Dumbledore'
p49
(lp50
(S'Harry'
p51
I14
tp52
a(S'Severus'
p53
I13
tp54
asS'Voldemort'
p55
(lp56
(S'Harry'
p57
I11
tp58
a(S'Bellatrix'
p59
I7
tp60
a(S'Severus'
p61
I6
tp62
a(S'Dumbledore'
p63
I4
tp64
asS'Cho'
p65
(lp66
(S'Harry'
p67
I14
tp68
a(S'Hermione'
p69
I5
tp70
a(S'Luna'
p71
I4
tp72
a(S'Dumbledore'
p73
I4
tp74
asS'Bellatrix'
p75
(lp76
(S'Voldemort'
p77
I12
tp78
a(S'Narcissa Malfoy'
p79
I9
tp80
a(S'Lucius'
p81
I5
tp82
asS'Luna'
p83
(lp84
(S'Harry'
p85
I12
tp86
a(S'Ginny'
p87
I8
tp88
a(S'Ron'
p89
I4
tp90
asS'Angelina'
p91
(lp92
(S'George'
p93
I13
tp94
a(S'Fred'
p95
I10
tp96
asS'Hermione'
p97
(lp98
(S'Harry'
p99
I15
tp100
a(S'Ron'
p101
I15
tp102
asS'Harry'
p103
(lp104
(S'Ron'
p105
I13
tp106
a(S'Hermione'
p107
I9
tp108
a(S'Voldemort'
p109
I4
tp110
asS'Severus'
p111
(lp112
(S'Dumbledore'
p113
I9
tp114
a(S'Lily'
p115
I7
tp116
a(S'Harry'
p117
I6
tp118
a(S'Voldemort'
p119
I4
tp120
asS'Fleur'
p121
(lp122
(S'Bill'
p123
I14
tp124
a(S'Harry'
p125
I9
tp126
a(S'Ron'
p127
I5
tp128
asS'Lily'
p129
(lp130
(S'Harry'
p131
I13
tp132
a(S'James'
p133
I13
tp134
asS'George'
p135
(lp136
(S'Fred'
p137
I14
tp138
a(S'Ron'
p139
I12
tp140
asS'Lucius'
p141
(lp142
(S'Voldemort'
p143
I13
tp144
a(S'Bellatrix'
p145
I11
tp146
asS'Fred'
p147
(lp148
(S'George'
p149
I13
tp150
a(S'Ron'
p151
I10
tp152
as.